GAS LISTING /var/folders/bw/qt0c_sr91jn06zw8rq0xyt_m0000gn/T//ccp54GUM.s 			page 1


   1               		.file	"input.c"
   2               	__SP_H__ = 0x3e
   3               	__SP_L__ = 0x3d
   4               	__SREG__ = 0x3f
   5               	__tmp_reg__ = 0
   6               	__zero_reg__ = 1
   7               		.text
   8               	.Ltext0:
   9               		.cfi_sections	.debug_frame
  10               		.section	.text.startup,"ax",@progbits
  11               	.global	main
  12               		.type	main, @function
  13               	main:
  14               	.LFB0:
  15               		.file 1 "src/input.c"
   1:src/input.c   **** #define F_CPU 16000000UL
   2:src/input.c   **** 
   3:src/input.c   **** signed char dirBit=0;
   4:src/input.c   **** int main(){
  16               		.loc 1 4 11 view -0
  17               		.cfi_startproc
  18 0000 00D0      		rcall .
  19               		.cfi_def_cfa_offset 4
  20 0002 CDB7      		in r28,__SP_L__
  21 0004 DEB7      		in r29,__SP_H__
  22               		.cfi_def_cfa_register 28
  23               	/* prologue: function */
  24               	/* frame size = 2 */
  25               	/* stack size = 2 */
  26               	.L__stack_usage = 2
   5:src/input.c   **** /*
   6:src/input.c   ****     If PORTxn is written logic one 
   7:src/input.c   ****         when the pin is configured as an INPUT_PIN:
   8:src/input.c   ****             the pull-up resistor is activated. 
   9:src/input.c   **** */
  10:src/input.c   ****     // set INPUT_PIN: DDRD(0x2A): PD2(INT0): PD3(INT1):
  11:src/input.c   ****     *(volatile unsigned char*)0x2a &= 0b11110011;
  27               		.loc 1 11 5 view .LVU1
  28               		.loc 1 11 36 is_stmt 0 view .LVU2
  29 0006 8AB1      		in r24,0xa
  30 0008 837F      		andi r24,lo8(-13)
  31 000a 8AB9      		out 0xa,r24
  12:src/input.c   ****     *(volatile unsigned char*)0x2b |= 0b00001100;
  32               		.loc 1 12 5 is_stmt 1 view .LVU3
  33               		.loc 1 12 36 is_stmt 0 view .LVU4
  34 000c 8BB1      		in r24,0xb
  35 000e 8C60      		ori r24,lo8(12)
  36 0010 8BB9      		out 0xb,r24
  13:src/input.c   **** 
  14:src/input.c   ****     // DDRB(0x24): PB0: PB1: PB2: PB3:
  15:src/input.c   ****     *(volatile unsigned char*)0x24 |= 0b00001111;
  37               		.loc 1 15 5 is_stmt 1 view .LVU5
  38               		.loc 1 15 36 is_stmt 0 view .LVU6
  39 0012 84B1      		in r24,0x4
  40 0014 8F60      		ori r24,lo8(15)
  41 0016 84B9      		out 0x4,r24
  16:src/input.c   ****     
GAS LISTING /var/folders/bw/qt0c_sr91jn06zw8rq0xyt_m0000gn/T//ccp54GUM.s 			page 2


  17:src/input.c   ****     while(1){
  18:src/input.c   ****         if(!(*(volatile unsigned char*)0x29 & 0b00000100)){ // PIND2 == 0
  19:src/input.c   ****             ++dirBit;
  20:src/input.c   ****             if(dirBit > 3) dirBit= 0;
  21:src/input.c   ****         }else if(!(*(volatile unsigned char*)0x29 & 0b00001000)){ // PIND3 == 0
  22:src/input.c   ****             --dirBit;
  23:src/input.c   ****             if(dirBit < 0) dirBit=3;
  42               		.loc 1 23 34 view .LVU7
  43 0018 43E0      		ldi r20,lo8(3)
  24:src/input.c   ****         }
  25:src/input.c   ****         *(volatile unsigned char*)0x25 = 1<<dirBit;
  44               		.loc 1 25 43 view .LVU8
  45 001a 21E0      		ldi r18,lo8(1)
  46 001c 30E0      		ldi r19,0
  47               	.L9:
  17:src/input.c   ****         if(!(*(volatile unsigned char*)0x29 & 0b00000100)){ // PIND2 == 0
  48               		.loc 1 17 5 is_stmt 1 view .LVU9
  18:src/input.c   ****             ++dirBit;
  49               		.loc 1 18 9 view .LVU10
  50 001e 8091 0000 		lds r24,dirBit
  18:src/input.c   ****             ++dirBit;
  51               		.loc 1 18 11 is_stmt 0 view .LVU11
  52 0022 4A99      		sbic 0x9,2
  53 0024 00C0      		rjmp .L2
  19:src/input.c   ****             if(dirBit > 3) dirBit= 0;
  54               		.loc 1 19 13 is_stmt 1 view .LVU12
  55 0026 8F5F      		subi r24,lo8(-(1))
  20:src/input.c   ****         }else if(!(*(volatile unsigned char*)0x29 & 0b00001000)){ // PIND3 == 0
  56               		.loc 1 20 13 view .LVU13
  20:src/input.c   ****         }else if(!(*(volatile unsigned char*)0x29 & 0b00001000)){ // PIND3 == 0
  57               		.loc 1 20 15 is_stmt 0 view .LVU14
  58 0028 8430      		cpi r24,lo8(4)
  59 002a 04F4      		brge .L3
  60               	.L10:
  22:src/input.c   ****             if(dirBit < 0) dirBit=3;
  61               		.loc 1 22 13 view .LVU15
  62 002c 8093 0000 		sts dirBit,r24
  63 0030 00C0      		rjmp .L4
  64               	.L3:
  20:src/input.c   ****         }else if(!(*(volatile unsigned char*)0x29 & 0b00001000)){ // PIND3 == 0
  65               		.loc 1 20 28 is_stmt 1 discriminator 1 view .LVU16
  20:src/input.c   ****         }else if(!(*(volatile unsigned char*)0x29 & 0b00001000)){ // PIND3 == 0
  66               		.loc 1 20 34 is_stmt 0 discriminator 1 view .LVU17
  67 0032 1092 0000 		sts dirBit,__zero_reg__
  68               	.L4:
  69               		.loc 1 25 9 is_stmt 1 view .LVU18
  70               		.loc 1 25 43 is_stmt 0 view .LVU19
  71 0036 8091 0000 		lds r24,dirBit
  72 003a B901      		movw r22,r18
  73 003c 00C0      		rjmp 2f
  74               		1:
  75 003e 660F      		lsl r22
  76 0040 771F      		rol r23
  77               		2:
  78 0042 8A95      		dec r24
  79 0044 02F4      		brpl 1b
  80               		.loc 1 25 40 view .LVU20
GAS LISTING /var/folders/bw/qt0c_sr91jn06zw8rq0xyt_m0000gn/T//ccp54GUM.s 			page 3


  81 0046 65B9      		out 0x5,r22
  26:src/input.c   ****         for(volatile int i=0;i<0xfff0;i++);
  82               		.loc 1 26 9 is_stmt 1 view .LVU21
  83               	.LBB2:
  84               		.loc 1 26 13 view .LVU22
  85               		.loc 1 26 26 is_stmt 0 view .LVU23
  86 0048 1A82      		std Y+2,__zero_reg__
  87 004a 1982      		std Y+1,__zero_reg__
  88               	.L7:
  89               		.loc 1 26 30 is_stmt 1 discriminator 1 view .LVU24
  90               		.loc 1 26 31 is_stmt 0 discriminator 1 view .LVU25
  91 004c 8981      		ldd r24,Y+1
  92 004e 9A81      		ldd r25,Y+2
  93               		.loc 1 26 9 discriminator 1 view .LVU26
  94 0050 803F      		cpi r24,-16
  95 0052 9F4F      		sbci r25,-1
  96 0054 00F4      		brsh .L9
  97               		.loc 1 26 43 is_stmt 1 discriminator 3 view .LVU27
  98               		.loc 1 26 39 discriminator 3 view .LVU28
  99               		.loc 1 26 40 is_stmt 0 discriminator 3 view .LVU29
 100 0056 8981      		ldd r24,Y+1
 101 0058 9A81      		ldd r25,Y+2
 102 005a 0196      		adiw r24,1
 103 005c 9A83      		std Y+2,r25
 104 005e 8983      		std Y+1,r24
 105 0060 00C0      		rjmp .L7
 106               	.L2:
 107               	.LBE2:
  21:src/input.c   ****             --dirBit;
 108               		.loc 1 21 15 is_stmt 1 view .LVU30
  21:src/input.c   ****             --dirBit;
 109               		.loc 1 21 17 is_stmt 0 view .LVU31
 110 0062 4B99      		sbic 0x9,3
 111 0064 00C0      		rjmp .L4
  22:src/input.c   ****             if(dirBit < 0) dirBit=3;
 112               		.loc 1 22 13 is_stmt 1 view .LVU32
 113 0066 8150      		subi r24,lo8(-(-1))
  23:src/input.c   ****         }
 114               		.loc 1 23 13 view .LVU33
  23:src/input.c   ****         }
 115               		.loc 1 23 15 is_stmt 0 view .LVU34
 116 0068 87FF      		sbrs r24,7
 117 006a 00C0      		rjmp .L10
  23:src/input.c   ****         }
 118               		.loc 1 23 28 is_stmt 1 discriminator 1 view .LVU35
  23:src/input.c   ****         }
 119               		.loc 1 23 34 is_stmt 0 discriminator 1 view .LVU36
 120 006c 4093 0000 		sts dirBit,r20
 121 0070 00C0      		rjmp .L4
 122               		.cfi_endproc
 123               	.LFE0:
 124               		.size	main, .-main
 125               	.global	dirBit
 126               		.section .bss
 127               		.type	dirBit, @object
 128               		.size	dirBit, 1
 129               	dirBit:
GAS LISTING /var/folders/bw/qt0c_sr91jn06zw8rq0xyt_m0000gn/T//ccp54GUM.s 			page 4


 130 0000 00        		.zero	1
 131               		.text
 132               	.Letext0:
 133               		.section	.debug_info,"",@progbits
 134               	.Ldebug_info0:
 135 0000 7900 0000 		.long	0x79
 136 0004 0400      		.word	0x4
 137 0006 0000 0000 		.long	.Ldebug_abbrev0
 138 000a 04        		.byte	0x4
 139 000b 01        		.uleb128 0x1
 140 000c 0000 0000 		.long	.LASF1
 141 0010 0C        		.byte	0xc
 142 0011 0000 0000 		.long	.LASF2
 143 0015 0000 0000 		.long	.LASF3
 144 0019 0000 0000 		.long	.Ldebug_ranges0+0
 145 001d 0000 0000 		.long	0
 146 0021 0000 0000 		.long	.Ldebug_line0
 147 0025 02        		.uleb128 0x2
 148 0026 0000 0000 		.long	.LASF4
 149 002a 01        		.byte	0x1
 150 002b 03        		.byte	0x3
 151 002c 0D        		.byte	0xd
 152 002d 3700 0000 		.long	0x37
 153 0031 05        		.uleb128 0x5
 154 0032 03        		.byte	0x3
 155 0033 0000 0000 		.long	dirBit
 156 0037 03        		.uleb128 0x3
 157 0038 01        		.byte	0x1
 158 0039 06        		.byte	0x6
 159 003a 0000 0000 		.long	.LASF0
 160 003e 04        		.uleb128 0x4
 161 003f 0000 0000 		.long	.LASF5
 162 0043 01        		.byte	0x1
 163 0044 04        		.byte	0x4
 164 0045 05        		.byte	0x5
 165 0046 7000 0000 		.long	0x70
 166 004a 0000 0000 		.long	.LFB0
 167 004e 7200 0000 		.long	.LFE0-.LFB0
 168 0052 01        		.uleb128 0x1
 169 0053 9C        		.byte	0x9c
 170 0054 7000 0000 		.long	0x70
 171 0058 05        		.uleb128 0x5
 172 0059 0000 0000 		.long	.LBB2
 173 005d 1A00 0000 		.long	.LBE2-.LBB2
 174 0061 06        		.uleb128 0x6
 175 0062 6900      		.string	"i"
 176 0064 01        		.byte	0x1
 177 0065 1A        		.byte	0x1a
 178 0066 1A        		.byte	0x1a
 179 0067 7700 0000 		.long	0x77
 180 006b 02        		.uleb128 0x2
 181 006c 8C        		.byte	0x8c
 182 006d 01        		.sleb128 1
 183 006e 00        		.byte	0
 184 006f 00        		.byte	0
 185 0070 07        		.uleb128 0x7
 186 0071 02        		.byte	0x2
GAS LISTING /var/folders/bw/qt0c_sr91jn06zw8rq0xyt_m0000gn/T//ccp54GUM.s 			page 5


 187 0072 05        		.byte	0x5
 188 0073 696E 7400 		.string	"int"
 189 0077 08        		.uleb128 0x8
 190 0078 7000 0000 		.long	0x70
 191 007c 00        		.byte	0
 192               		.section	.debug_abbrev,"",@progbits
 193               	.Ldebug_abbrev0:
 194 0000 01        		.uleb128 0x1
 195 0001 11        		.uleb128 0x11
 196 0002 01        		.byte	0x1
 197 0003 25        		.uleb128 0x25
 198 0004 0E        		.uleb128 0xe
 199 0005 13        		.uleb128 0x13
 200 0006 0B        		.uleb128 0xb
 201 0007 03        		.uleb128 0x3
 202 0008 0E        		.uleb128 0xe
 203 0009 1B        		.uleb128 0x1b
 204 000a 0E        		.uleb128 0xe
 205 000b 55        		.uleb128 0x55
 206 000c 17        		.uleb128 0x17
 207 000d 11        		.uleb128 0x11
 208 000e 01        		.uleb128 0x1
 209 000f 10        		.uleb128 0x10
 210 0010 17        		.uleb128 0x17
 211 0011 00        		.byte	0
 212 0012 00        		.byte	0
 213 0013 02        		.uleb128 0x2
 214 0014 34        		.uleb128 0x34
 215 0015 00        		.byte	0
 216 0016 03        		.uleb128 0x3
 217 0017 0E        		.uleb128 0xe
 218 0018 3A        		.uleb128 0x3a
 219 0019 0B        		.uleb128 0xb
 220 001a 3B        		.uleb128 0x3b
 221 001b 0B        		.uleb128 0xb
 222 001c 39        		.uleb128 0x39
 223 001d 0B        		.uleb128 0xb
 224 001e 49        		.uleb128 0x49
 225 001f 13        		.uleb128 0x13
 226 0020 3F        		.uleb128 0x3f
 227 0021 19        		.uleb128 0x19
 228 0022 02        		.uleb128 0x2
 229 0023 18        		.uleb128 0x18
 230 0024 00        		.byte	0
 231 0025 00        		.byte	0
 232 0026 03        		.uleb128 0x3
 233 0027 24        		.uleb128 0x24
 234 0028 00        		.byte	0
 235 0029 0B        		.uleb128 0xb
 236 002a 0B        		.uleb128 0xb
 237 002b 3E        		.uleb128 0x3e
 238 002c 0B        		.uleb128 0xb
 239 002d 03        		.uleb128 0x3
 240 002e 0E        		.uleb128 0xe
 241 002f 00        		.byte	0
 242 0030 00        		.byte	0
 243 0031 04        		.uleb128 0x4
GAS LISTING /var/folders/bw/qt0c_sr91jn06zw8rq0xyt_m0000gn/T//ccp54GUM.s 			page 6


 244 0032 2E        		.uleb128 0x2e
 245 0033 01        		.byte	0x1
 246 0034 3F        		.uleb128 0x3f
 247 0035 19        		.uleb128 0x19
 248 0036 03        		.uleb128 0x3
 249 0037 0E        		.uleb128 0xe
 250 0038 3A        		.uleb128 0x3a
 251 0039 0B        		.uleb128 0xb
 252 003a 3B        		.uleb128 0x3b
 253 003b 0B        		.uleb128 0xb
 254 003c 39        		.uleb128 0x39
 255 003d 0B        		.uleb128 0xb
 256 003e 49        		.uleb128 0x49
 257 003f 13        		.uleb128 0x13
 258 0040 11        		.uleb128 0x11
 259 0041 01        		.uleb128 0x1
 260 0042 12        		.uleb128 0x12
 261 0043 06        		.uleb128 0x6
 262 0044 40        		.uleb128 0x40
 263 0045 18        		.uleb128 0x18
 264 0046 9742      		.uleb128 0x2117
 265 0048 19        		.uleb128 0x19
 266 0049 01        		.uleb128 0x1
 267 004a 13        		.uleb128 0x13
 268 004b 00        		.byte	0
 269 004c 00        		.byte	0
 270 004d 05        		.uleb128 0x5
 271 004e 0B        		.uleb128 0xb
 272 004f 01        		.byte	0x1
 273 0050 11        		.uleb128 0x11
 274 0051 01        		.uleb128 0x1
 275 0052 12        		.uleb128 0x12
 276 0053 06        		.uleb128 0x6
 277 0054 00        		.byte	0
 278 0055 00        		.byte	0
 279 0056 06        		.uleb128 0x6
 280 0057 34        		.uleb128 0x34
 281 0058 00        		.byte	0
 282 0059 03        		.uleb128 0x3
 283 005a 08        		.uleb128 0x8
 284 005b 3A        		.uleb128 0x3a
 285 005c 0B        		.uleb128 0xb
 286 005d 3B        		.uleb128 0x3b
 287 005e 0B        		.uleb128 0xb
 288 005f 39        		.uleb128 0x39
 289 0060 0B        		.uleb128 0xb
 290 0061 49        		.uleb128 0x49
 291 0062 13        		.uleb128 0x13
 292 0063 02        		.uleb128 0x2
 293 0064 18        		.uleb128 0x18
 294 0065 00        		.byte	0
 295 0066 00        		.byte	0
 296 0067 07        		.uleb128 0x7
 297 0068 24        		.uleb128 0x24
 298 0069 00        		.byte	0
 299 006a 0B        		.uleb128 0xb
 300 006b 0B        		.uleb128 0xb
GAS LISTING /var/folders/bw/qt0c_sr91jn06zw8rq0xyt_m0000gn/T//ccp54GUM.s 			page 7


 301 006c 3E        		.uleb128 0x3e
 302 006d 0B        		.uleb128 0xb
 303 006e 03        		.uleb128 0x3
 304 006f 08        		.uleb128 0x8
 305 0070 00        		.byte	0
 306 0071 00        		.byte	0
 307 0072 08        		.uleb128 0x8
 308 0073 35        		.uleb128 0x35
 309 0074 00        		.byte	0
 310 0075 49        		.uleb128 0x49
 311 0076 13        		.uleb128 0x13
 312 0077 00        		.byte	0
 313 0078 00        		.byte	0
 314 0079 00        		.byte	0
 315               		.section	.debug_aranges,"",@progbits
 316 0000 1C00 0000 		.long	0x1c
 317 0004 0200      		.word	0x2
 318 0006 0000 0000 		.long	.Ldebug_info0
 319 000a 04        		.byte	0x4
 320 000b 00        		.byte	0
 321 000c 0000      		.word	0
 322 000e 0000      		.word	0
 323 0010 0000 0000 		.long	.LFB0
 324 0014 7200 0000 		.long	.LFE0-.LFB0
 325 0018 0000 0000 		.long	0
 326 001c 0000 0000 		.long	0
 327               		.section	.debug_ranges,"",@progbits
 328               	.Ldebug_ranges0:
 329 0000 0000 0000 		.long	.LFB0
 330 0004 0000 0000 		.long	.LFE0
 331 0008 0000 0000 		.long	0
 332 000c 0000 0000 		.long	0
 333               		.section	.debug_line,"",@progbits
 334               	.Ldebug_line0:
 335 0000 9501 0000 		.section	.debug_str,"MS",@progbits,1
 335      0300 2200 
 335      0000 0201 
 335      FB0E 0D00 
 335      0101 0101 
 336               	.LASF2:
 337 0000 7372 632F 		.string	"src/input.c"
 337      696E 7075 
 337      742E 6300 
 338               	.LASF1:
 339 000c 474E 5520 		.string	"GNU C99 9.4.0 -mn-flash=1 -mno-skip-bug -mmcu=avr5 -g -Os -std=gnu99 -fpack-struct -fshor
 339      4339 3920 
 339      392E 342E 
 339      3020 2D6D 
 339      6E2D 666C 
 340               	.LASF0:
 341 0092 7369 676E 		.string	"signed char"
 341      6564 2063 
 341      6861 7200 
 342               	.LASF3:
 343 009e 2F55 7365 		.string	"/Users/jkarng/Project/jqemu/avr/atmega328p"
 343      7273 2F6A 
 343      6B61 726E 
GAS LISTING /var/folders/bw/qt0c_sr91jn06zw8rq0xyt_m0000gn/T//ccp54GUM.s 			page 8


 343      672F 5072 
 343      6F6A 6563 
 344               	.LASF4:
 345 00c9 6469 7242 		.string	"dirBit"
 345      6974 00
 346               	.LASF5:
 347 00d0 6D61 696E 		.string	"main"
 347      00
 348               		.ident	"GCC: (Homebrew AVR GCC 9.4.0) 9.4.0"
 349               	.global __do_clear_bss
GAS LISTING /var/folders/bw/qt0c_sr91jn06zw8rq0xyt_m0000gn/T//ccp54GUM.s 			page 9


DEFINED SYMBOLS
                            *ABS*:0000000000000000 input.c
/var/folders/bw/qt0c_sr91jn06zw8rq0xyt_m0000gn/T//ccp54GUM.s:2      *ABS*:000000000000003e __SP_H__
/var/folders/bw/qt0c_sr91jn06zw8rq0xyt_m0000gn/T//ccp54GUM.s:3      *ABS*:000000000000003d __SP_L__
/var/folders/bw/qt0c_sr91jn06zw8rq0xyt_m0000gn/T//ccp54GUM.s:4      *ABS*:000000000000003f __SREG__
/var/folders/bw/qt0c_sr91jn06zw8rq0xyt_m0000gn/T//ccp54GUM.s:5      *ABS*:0000000000000000 __tmp_reg__
/var/folders/bw/qt0c_sr91jn06zw8rq0xyt_m0000gn/T//ccp54GUM.s:6      *ABS*:0000000000000001 __zero_reg__
/var/folders/bw/qt0c_sr91jn06zw8rq0xyt_m0000gn/T//ccp54GUM.s:13     .text.startup:0000000000000000 main
/var/folders/bw/qt0c_sr91jn06zw8rq0xyt_m0000gn/T//ccp54GUM.s:16     .text.startup:0000000000000000 .Loc.0
/var/folders/bw/qt0c_sr91jn06zw8rq0xyt_m0000gn/T//ccp54GUM.s:17     .text.startup:0000000000000000 L0
/var/folders/bw/qt0c_sr91jn06zw8rq0xyt_m0000gn/T//ccp54GUM.s:18     .text.startup:0000000000000002 L0
/var/folders/bw/qt0c_sr91jn06zw8rq0xyt_m0000gn/T//ccp54GUM.s:27     .text.startup:0000000000000006 .Loc.1
/var/folders/bw/qt0c_sr91jn06zw8rq0xyt_m0000gn/T//ccp54GUM.s:28     .text.startup:0000000000000006 .Loc.2
/var/folders/bw/qt0c_sr91jn06zw8rq0xyt_m0000gn/T//ccp54GUM.s:32     .text.startup:000000000000000c .Loc.3
/var/folders/bw/qt0c_sr91jn06zw8rq0xyt_m0000gn/T//ccp54GUM.s:33     .text.startup:000000000000000c .Loc.4
/var/folders/bw/qt0c_sr91jn06zw8rq0xyt_m0000gn/T//ccp54GUM.s:37     .text.startup:0000000000000012 .Loc.5
/var/folders/bw/qt0c_sr91jn06zw8rq0xyt_m0000gn/T//ccp54GUM.s:38     .text.startup:0000000000000012 .Loc.6
/var/folders/bw/qt0c_sr91jn06zw8rq0xyt_m0000gn/T//ccp54GUM.s:42     .text.startup:0000000000000018 .Loc.7
/var/folders/bw/qt0c_sr91jn06zw8rq0xyt_m0000gn/T//ccp54GUM.s:44     .text.startup:000000000000001a .Loc.8
/var/folders/bw/qt0c_sr91jn06zw8rq0xyt_m0000gn/T//ccp54GUM.s:48     .text.startup:000000000000001e .Loc.9
/var/folders/bw/qt0c_sr91jn06zw8rq0xyt_m0000gn/T//ccp54GUM.s:49     .text.startup:000000000000001e .Loc.10
/var/folders/bw/qt0c_sr91jn06zw8rq0xyt_m0000gn/T//ccp54GUM.s:129    .bss:0000000000000000 dirBit
/var/folders/bw/qt0c_sr91jn06zw8rq0xyt_m0000gn/T//ccp54GUM.s:51     .text.startup:0000000000000022 .Loc.11
/var/folders/bw/qt0c_sr91jn06zw8rq0xyt_m0000gn/T//ccp54GUM.s:54     .text.startup:0000000000000026 .Loc.12
/var/folders/bw/qt0c_sr91jn06zw8rq0xyt_m0000gn/T//ccp54GUM.s:56     .text.startup:0000000000000028 .Loc.13
/var/folders/bw/qt0c_sr91jn06zw8rq0xyt_m0000gn/T//ccp54GUM.s:57     .text.startup:0000000000000028 .Loc.14
/var/folders/bw/qt0c_sr91jn06zw8rq0xyt_m0000gn/T//ccp54GUM.s:61     .text.startup:000000000000002c .Loc.15
/var/folders/bw/qt0c_sr91jn06zw8rq0xyt_m0000gn/T//ccp54GUM.s:65     .text.startup:0000000000000032 .Loc.16
/var/folders/bw/qt0c_sr91jn06zw8rq0xyt_m0000gn/T//ccp54GUM.s:66     .text.startup:0000000000000032 .Loc.17
/var/folders/bw/qt0c_sr91jn06zw8rq0xyt_m0000gn/T//ccp54GUM.s:69     .text.startup:0000000000000036 .Loc.18
/var/folders/bw/qt0c_sr91jn06zw8rq0xyt_m0000gn/T//ccp54GUM.s:70     .text.startup:0000000000000036 .Loc.19
/var/folders/bw/qt0c_sr91jn06zw8rq0xyt_m0000gn/T//ccp54GUM.s:80     .text.startup:0000000000000046 .Loc.20
/var/folders/bw/qt0c_sr91jn06zw8rq0xyt_m0000gn/T//ccp54GUM.s:82     .text.startup:0000000000000048 .Loc.21
/var/folders/bw/qt0c_sr91jn06zw8rq0xyt_m0000gn/T//ccp54GUM.s:84     .text.startup:0000000000000048 .Loc.22
/var/folders/bw/qt0c_sr91jn06zw8rq0xyt_m0000gn/T//ccp54GUM.s:85     .text.startup:0000000000000048 .Loc.23
/var/folders/bw/qt0c_sr91jn06zw8rq0xyt_m0000gn/T//ccp54GUM.s:89     .text.startup:000000000000004c .Loc.24
/var/folders/bw/qt0c_sr91jn06zw8rq0xyt_m0000gn/T//ccp54GUM.s:90     .text.startup:000000000000004c .Loc.25
/var/folders/bw/qt0c_sr91jn06zw8rq0xyt_m0000gn/T//ccp54GUM.s:93     .text.startup:0000000000000050 .Loc.26
/var/folders/bw/qt0c_sr91jn06zw8rq0xyt_m0000gn/T//ccp54GUM.s:97     .text.startup:0000000000000056 .Loc.27
/var/folders/bw/qt0c_sr91jn06zw8rq0xyt_m0000gn/T//ccp54GUM.s:98     .text.startup:0000000000000056 .Loc.28
/var/folders/bw/qt0c_sr91jn06zw8rq0xyt_m0000gn/T//ccp54GUM.s:99     .text.startup:0000000000000056 .Loc.29
/var/folders/bw/qt0c_sr91jn06zw8rq0xyt_m0000gn/T//ccp54GUM.s:108    .text.startup:0000000000000062 .Loc.30
/var/folders/bw/qt0c_sr91jn06zw8rq0xyt_m0000gn/T//ccp54GUM.s:109    .text.startup:0000000000000062 .Loc.31
/var/folders/bw/qt0c_sr91jn06zw8rq0xyt_m0000gn/T//ccp54GUM.s:112    .text.startup:0000000000000066 .Loc.32
/var/folders/bw/qt0c_sr91jn06zw8rq0xyt_m0000gn/T//ccp54GUM.s:114    .text.startup:0000000000000068 .Loc.33
/var/folders/bw/qt0c_sr91jn06zw8rq0xyt_m0000gn/T//ccp54GUM.s:115    .text.startup:0000000000000068 .Loc.34
/var/folders/bw/qt0c_sr91jn06zw8rq0xyt_m0000gn/T//ccp54GUM.s:118    .text.startup:000000000000006c .Loc.35
/var/folders/bw/qt0c_sr91jn06zw8rq0xyt_m0000gn/T//ccp54GUM.s:119    .text.startup:000000000000006c .Loc.36
/var/folders/bw/qt0c_sr91jn06zw8rq0xyt_m0000gn/T//ccp54GUM.s:122    .text.startup:0000000000000072 L0
/var/folders/bw/qt0c_sr91jn06zw8rq0xyt_m0000gn/T//ccp54GUM.s:126    .text.startup:0000000000000072 L0
                     .debug_frame:0000000000000000 L0
/var/folders/bw/qt0c_sr91jn06zw8rq0xyt_m0000gn/T//ccp54GUM.s:106    .text.startup:0000000000000062 .L2
/var/folders/bw/qt0c_sr91jn06zw8rq0xyt_m0000gn/T//ccp54GUM.s:64     .text.startup:0000000000000032 .L3
/var/folders/bw/qt0c_sr91jn06zw8rq0xyt_m0000gn/T//ccp54GUM.s:68     .text.startup:0000000000000036 .L4
/var/folders/bw/qt0c_sr91jn06zw8rq0xyt_m0000gn/T//ccp54GUM.s:77     .text.startup:0000000000000042 .L21
/var/folders/bw/qt0c_sr91jn06zw8rq0xyt_m0000gn/T//ccp54GUM.s:74     .text.startup:000000000000003e .L11
/var/folders/bw/qt0c_sr91jn06zw8rq0xyt_m0000gn/T//ccp54GUM.s:47     .text.startup:000000000000001e .L9
GAS LISTING /var/folders/bw/qt0c_sr91jn06zw8rq0xyt_m0000gn/T//ccp54GUM.s 			page 10


/var/folders/bw/qt0c_sr91jn06zw8rq0xyt_m0000gn/T//ccp54GUM.s:88     .text.startup:000000000000004c .L7
/var/folders/bw/qt0c_sr91jn06zw8rq0xyt_m0000gn/T//ccp54GUM.s:60     .text.startup:000000000000002c .L10
/var/folders/bw/qt0c_sr91jn06zw8rq0xyt_m0000gn/T//ccp54GUM.s:193    .debug_abbrev:0000000000000000 .Ldebug_abbrev0
/var/folders/bw/qt0c_sr91jn06zw8rq0xyt_m0000gn/T//ccp54GUM.s:328    .debug_ranges:0000000000000000 .Ldebug_ranges0
/var/folders/bw/qt0c_sr91jn06zw8rq0xyt_m0000gn/T//ccp54GUM.s:334    .debug_line:0000000000000000 .Ldebug_line0
/var/folders/bw/qt0c_sr91jn06zw8rq0xyt_m0000gn/T//ccp54GUM.s:14     .text.startup:0000000000000000 .LFB0
/var/folders/bw/qt0c_sr91jn06zw8rq0xyt_m0000gn/T//ccp54GUM.s:123    .text.startup:0000000000000072 .LFE0
/var/folders/bw/qt0c_sr91jn06zw8rq0xyt_m0000gn/T//ccp54GUM.s:83     .text.startup:0000000000000048 .LBB2
/var/folders/bw/qt0c_sr91jn06zw8rq0xyt_m0000gn/T//ccp54GUM.s:107    .text.startup:0000000000000062 .LBE2
/var/folders/bw/qt0c_sr91jn06zw8rq0xyt_m0000gn/T//ccp54GUM.s:134    .debug_info:0000000000000000 .Ldebug_info0

UNDEFINED SYMBOLS
__do_clear_bss
